; Function Attrs: mustprogress uwtable
define void @_ZN7rocksdb14ThreadPoolImpl9SubmitJobERKSt8functionIFvvEE(ptr noundef nonnull readonly align 8 captures(none) dereferenceable(16) %0, ptr noundef nonnull align 8 dereferenceable(32) %1) unnamed_addr #3 align 2 personality ptr @__gxx_personality_v0 {
  %3 = alloca %"class.std::function", align 8
  %4 = alloca %"class.std::function", align 8
  call void @llvm.lifetime.start.p0(i64 32, ptr nonnull %3) #26
  %5 = getelementptr inbounds nuw i8, ptr %3, i64 16
  %6 = getelementptr inbounds nuw i8, ptr %3, i64 24
  %7 = getelementptr inbounds nuw i8, ptr %1, i64 16
  call void @llvm.memset.p0.i64(ptr noundef nonnull align 8 dereferenceable(32) %3, i8 0, i64 32, i1 false)
  %8 = load ptr, ptr %7, align 8, !tbaa !66
  %.not.i.i.not.i = icmp eq ptr %8, null
  br i1 %.not.i.i.not.i, label %_ZNSt8functionIFvvEEC2ERKS1_.exit, label %9

9:                                                ; preds = %2
  %10 = invoke noundef zeroext i1 %8(ptr noundef nonnull align 8 dereferenceable(32) %3, ptr noundef nonnull align 8 dereferenceable(32) %1, i32 noundef 2)
          to label %11 unwind label %15

11:                                               ; preds = %9
  %12 = getelementptr inbounds nuw i8, ptr %1, i64 24
  %13 = load ptr, ptr %12, align 8, !tbaa !63
  store ptr %13, ptr %6, align 8, !tbaa !63
  %14 = load ptr, ptr %7, align 8, !tbaa !66
  store ptr %14, ptr %5, align 8, !tbaa !66
  br label %_ZNSt8functionIFvvEEC2ERKS1_.exit

15:                                               ; preds = %9
  %16 = landingpad { ptr, i32 }
          cleanup
  %17 = load ptr, ptr %5, align 8, !tbaa !66
  %.not.i.i = icmp eq ptr %17, null
  br i1 %.not.i.i, label %common.resume, label %18

18:                                               ; preds = %15
  %19 = invoke noundef zeroext i1 %17(ptr noundef nonnull align 8 dereferenceable(32) %3, ptr noundef nonnull align 8 dereferenceable(32) %3, i32 noundef 3)
          to label %common.resume unwind label %20

20:                                               ; preds = %18
  %21 = landingpad { ptr, i32 }
          catch ptr null
  %22 = extractvalue { ptr, i32 } %21, 0
  call void @__clang_call_terminate(ptr %22) #28
  unreachable

common.resume:                                    ; preds = %15, %18, %_ZNSt14_Function_baseD2Ev.exit8
  %common.resume.op = phi { ptr, i32 } [ %40, %_ZNSt14_Function_baseD2Ev.exit8 ], [ %16, %18 ], [ %16, %15 ]
  resume { ptr, i32 } %common.resume.op

_ZNSt8functionIFvvEEC2ERKS1_.exit:                ; preds = %2, %11
  %23 = getelementptr inbounds nuw i8, ptr %0, i64 8
  %24 = load ptr, ptr %23, align 8, !tbaa !155
  call void @llvm.lifetime.start.p0(i64 32, ptr nonnull %4) #26
  call void @llvm.memset.p0.i64(ptr noundef nonnull align 8 dereferenceable(32) %4, i8 0, i64 32, i1 false)
  invoke void @_ZN7rocksdb14ThreadPoolImpl4Impl6SubmitEOSt8functionIFvvEES5_Pv(ptr noundef nonnull align 8 dereferenceable(240) %24, ptr noundef nonnull align 8 dereferenceable(32) %3, ptr noundef nonnull align 8 dereferenceable(32) %4, ptr noundef null)
          to label %25 unwind label %39

25:                                               ; preds = %_ZNSt8functionIFvvEEC2ERKS1_.exit
  %26 = getelementptr inbounds nuw i8, ptr %4, i64 16
  %27 = load ptr, ptr %26, align 8, !tbaa !66
  %.not.i = icmp eq ptr %27, null
  br i1 %.not.i, label %_ZNSt14_Function_baseD2Ev.exit, label %28

28:                                               ; preds = %25
  %29 = invoke noundef zeroext i1 %27(ptr noundef nonnull align 8 dereferenceable(32) %4, ptr noundef nonnull align 8 dereferenceable(32) %4, i32 noundef 3)
          to label %_ZNSt14_Function_baseD2Ev.exit unwind label %30

30:                                               ; preds = %28
  %31 = landingpad { ptr, i32 }
          catch ptr null
  %32 = extractvalue { ptr, i32 } %31, 0
  call void @__clang_call_terminate(ptr %32) #28
  unreachable

_ZNSt14_Function_baseD2Ev.exit:                   ; preds = %25, %28
  call void @llvm.lifetime.end.p0(i64 32, ptr nonnull %4) #26
  %33 = load ptr, ptr %5, align 8, !tbaa !66
  %.not.i3 = icmp eq ptr %33, null
  br i1 %.not.i3, label %_ZNSt14_Function_baseD2Ev.exit4, label %34

34:                                               ; preds = %_ZNSt14_Function_baseD2Ev.exit
  %35 = invoke noundef zeroext i1 %33(ptr noundef nonnull align 8 dereferenceable(32) %3, ptr noundef nonnull align 8 dereferenceable(32) %3, i32 noundef 3)
          to label %_ZNSt14_Function_baseD2Ev.exit4 unwind label %36

36:                                               ; preds = %34
  %37 = landingpad { ptr, i32 }
          catch ptr null
  %38 = extractvalue { ptr, i32 } %37, 0
  call void @__clang_call_terminate(ptr %38) #28
  unreachable

_ZNSt14_Function_baseD2Ev.exit4:                  ; preds = %_ZNSt14_Function_baseD2Ev.exit, %34
  call void @llvm.lifetime.end.p0(i64 32, ptr nonnull %3) #26
  ret void

39:                                               ; preds = %_ZNSt8functionIFvvEEC2ERKS1_.exit
  %40 = landingpad { ptr, i32 }
          cleanup
  %41 = getelementptr inbounds nuw i8, ptr %4, i64 16
  %42 = load ptr, ptr %41, align 8, !tbaa !66
  %.not.i5 = icmp eq ptr %42, null
  br i1 %.not.i5, label %_ZNSt14_Function_baseD2Ev.exit6, label %43

43:                                               ; preds = %39
  %44 = invoke noundef zeroext i1 %42(ptr noundef nonnull align 8 dereferenceable(32) %4, ptr noundef nonnull align 8 dereferenceable(32) %4, i32 noundef 3)
          to label %_ZNSt14_Function_baseD2Ev.exit6 unwind label %45

45:                                               ; preds = %43
  %46 = landingpad { ptr, i32 }
          catch ptr null
  %47 = extractvalue { ptr, i32 } %46, 0
  call void @__clang_call_terminate(ptr %47) #28
  unreachable

_ZNSt14_Function_baseD2Ev.exit6:                  ; preds = %39, %43
  call void @llvm.lifetime.end.p0(i64 32, ptr nonnull %4) #26
  %48 = load ptr, ptr %5, align 8, !tbaa !66
  %.not.i7 = icmp eq ptr %48, null
  br i1 %.not.i7, label %_ZNSt14_Function_baseD2Ev.exit8, label %49

49:                                               ; preds = %_ZNSt14_Function_baseD2Ev.exit6
  %50 = invoke noundef zeroext i1 %48(ptr noundef nonnull align 8 dereferenceable(32) %3, ptr noundef nonnull align 8 dereferenceable(32) %3, i32 noundef 3)
          to label %_ZNSt14_Function_baseD2Ev.exit8 unwind label %51

51:                                               ; preds = %49
  %52 = landingpad { ptr, i32 }
          catch ptr null
  %53 = extractvalue { ptr, i32 } %52, 0
  call void @__clang_call_terminate(ptr %53) #28
  unreachable

_ZNSt14_Function_baseD2Ev.exit8:                  ; preds = %_ZNSt14_Function_baseD2Ev.exit6, %49
  call void @llvm.lifetime.end.p0(i64 32, ptr nonnull %3) #26
  br label %common.resume
}